target datalayout = "e-m:e-p270:32:32-p271:32:32-p272:64:64-i64:64-i128:128-f80:128-n8:16:32:64-S128"
target triple = "x86_64-pc-linux-gnu"

%"struct.pybind11::arg" = type <{ ptr, i8, [7 x i8] }>

@.str.4 = private unnamed_addr constant [12 x i8] c"iou_bev_cpu\00", align 1
@.str.5 = private unnamed_addr constant [8 x i8] c"boxes_a\00", align 1
@.str.6 = private unnamed_addr constant [8 x i8] c"boxes_b\00", align 1
@.str.7 = private unnamed_addr constant [11 x i8] c"iou_3d_cpu\00", align 1

; Function Attrs: mustprogress nounwind ssp uwtable
define linkonce_odr hidden void @_ZN8pybind113argC2EPKc(ptr noundef nonnull align 8 dereferenceable(9) %0, ptr noundef %1) unnamed_addr #5 comdat align 2 {
  %3 = alloca ptr, align 8
  %4 = alloca ptr, align 8
  store ptr %0, ptr %3, align 8, !tbaa !205
  store ptr %1, ptr %4, align 8, !tbaa !174
  %5 = load ptr, ptr %3, align 8
  %6 = getelementptr inbounds nuw %"struct.pybind11::arg", ptr %5, i32 0, i32 0
  %7 = load ptr, ptr %4, align 8, !tbaa !174
  store ptr %7, ptr %6, align 8, !tbaa !2707
  %8 = getelementptr inbounds nuw %"struct.pybind11::arg", ptr %5, i32 0, i32 1
  %9 = load i8, ptr %8, align 8
  %10 = and i8 %9, -2
  %11 = or i8 %10, 0
  store i8 %11, ptr %8, align 8
  %12 = getelementptr inbounds nuw %"struct.pybind11::arg", ptr %5, i32 0, i32 1
  %13 = load i8, ptr %12, align 8
  %14 = and i8 %13, -3
  %15 = or i8 %14, 2
  store i8 %15, ptr %12, align 8
  ret void
}

; Function Attrs: mustprogress ssp uwtable
define linkonce_odr hidden { ptr, i64 } @_ZN8pybind118literalsli2_aEPKcm(ptr noundef %0, i64 noundef %1) #4 comdat {
  %3 = alloca %"struct.pybind11::arg", align 8
  %4 = alloca ptr, align 8
  %5 = alloca i64, align 8
  store ptr %0, ptr %4, align 8, !tbaa !174
  store i64 %1, ptr %5, align 8, !tbaa !153
  %6 = load ptr, ptr %4, align 8, !tbaa !174
  call void @_ZN8pybind113argC2EPKc(ptr noundef nonnull align 8 dereferenceable(9) %3, ptr noundef %6)
  %7 = load { ptr, i64 }, ptr %3, align 8
  ret { ptr, i64 } %7
}

; Function Attrs: mustprogress ssp uwtable
define hidden void @_ZN6open3d2ml7contrib30pybind_contrib_iou_definitionsERN8pybind117module_E(ptr noundef nonnull align 8 dereferenceable(8) %0) #4 {
  %2 = alloca ptr, align 8
  %3 = alloca ptr, align 8
  %4 = alloca %"struct.pybind11::arg", align 8
  %5 = alloca { ptr, i64 }, align 8
  %6 = alloca %"struct.pybind11::arg", align 8
  %7 = alloca { ptr, i64 }, align 8
  %8 = alloca ptr, align 8
  %9 = alloca %"struct.pybind11::arg", align 8
  %10 = alloca { ptr, i64 }, align 8
  %11 = alloca %"struct.pybind11::arg", align 8
  %12 = alloca { ptr, i64 }, align 8
  store ptr %0, ptr %2, align 8, !tbaa !200
  %13 = load ptr, ptr %2, align 8, !tbaa !200
  call void @llvm.lifetime.start.p0(i64 8, ptr %3) #25
  store ptr @_ZN6open3d2ml7contrib9IouBevCPUEN8pybind115arrayES3_, ptr %3, align 8, !tbaa !202
  call void @llvm.lifetime.start.p0(i64 16, ptr %4) #25
  %14 = call { ptr, i64 } @_ZN8pybind118literalsli2_aEPKcm(ptr noundef @.str.5, i64 noundef 7)
  store { ptr, i64 } %14, ptr %5, align 8
  call void @llvm.memcpy.p0.p0.i64(ptr align 8 %4, ptr align 8 %5, i64 9, i1 false)
  call void @llvm.lifetime.start.p0(i64 16, ptr %6) #25
  %15 = call { ptr, i64 } @_ZN8pybind118literalsli2_aEPKcm(ptr noundef @.str.6, i64 noundef 7)
  store { ptr, i64 } %15, ptr %7, align 8
  call void @llvm.memcpy.p0.p0.i64(ptr align 8 %6, ptr align 8 %7, i64 9, i1 false)
  %16 = call noundef nonnull align 8 dereferenceable(8) ptr @_ZN8pybind117module_3defIPFNS_5arrayES2_S2_EJNS_3argES5_EEERS0_PKcOT_DpRKT0_(ptr noundef nonnull align 8 dereferenceable(8) %13, ptr noundef @.str.4, ptr noundef nonnull align 8 dereferenceable(8) %3, ptr noundef nonnull align 8 dereferenceable(9) %4, ptr noundef nonnull align 8 dereferenceable(9) %6)
  call void @llvm.lifetime.end.p0(i64 16, ptr %6) #25
  call void @llvm.lifetime.end.p0(i64 16, ptr %4) #25
  call void @llvm.lifetime.end.p0(i64 8, ptr %3) #25
  %17 = load ptr, ptr %2, align 8, !tbaa !200
  call void @llvm.lifetime.start.p0(i64 8, ptr %8) #25
  store ptr @_ZN6open3d2ml7contrib8Iou3dCPUEN8pybind115arrayES3_, ptr %8, align 8, !tbaa !202
  call void @llvm.lifetime.start.p0(i64 16, ptr %9) #25
  %18 = call { ptr, i64 } @_ZN8pybind118literalsli2_aEPKcm(ptr noundef @.str.5, i64 noundef 7)
  store { ptr, i64 } %18, ptr %10, align 8
  call void @llvm.memcpy.p0.p0.i64(ptr align 8 %9, ptr align 8 %10, i64 9, i1 false)
  call void @llvm.lifetime.start.p0(i64 16, ptr %11) #25
  %19 = call { ptr, i64 } @_ZN8pybind118literalsli2_aEPKcm(ptr noundef @.str.6, i64 noundef 7)
  store { ptr, i64 } %19, ptr %12, align 8
  call void @llvm.memcpy.p0.p0.i64(ptr align 8 %11, ptr align 8 %12, i64 9, i1 false)
  %20 = call noundef nonnull align 8 dereferenceable(8) ptr @_ZN8pybind117module_3defIPFNS_5arrayES2_S2_EJNS_3argES5_EEERS0_PKcOT_DpRKT0_(ptr noundef nonnull align 8 dereferenceable(8) %17, ptr noundef @.str.7, ptr noundef nonnull align 8 dereferenceable(8) %8, ptr noundef nonnull align 8 dereferenceable(9) %9, ptr noundef nonnull align 8 dereferenceable(9) %11)
  call void @llvm.lifetime.end.p0(i64 16, ptr %11) #25
  call void @llvm.lifetime.end.p0(i64 16, ptr %9) #25
  call void @llvm.lifetime.end.p0(i64 8, ptr %8) #25
  ret void
}