; Function Attrs: mustprogress ssp uwtable
define hidden void @_ZN6open3d2ml7contrib30pybind_contrib_iou_definitionsERN8pybind117module_E(ptr noundef nonnull align 8 dereferenceable(8) %0) local_unnamed_addr #5 {
  %2 = alloca ptr, align 8
  %3 = alloca %"struct.pybind11::arg", align 8
  %4 = alloca %"struct.pybind11::arg", align 8
  %5 = alloca ptr, align 8
  %6 = alloca %"struct.pybind11::arg", align 8
  %7 = alloca %"struct.pybind11::arg", align 8
  call void @llvm.lifetime.start.p0(i64 8, ptr nonnull %2) #33
  store ptr @_ZN6open3d2ml7contrib9IouBevCPUEN8pybind115arrayES3_, ptr %2, align 8, !tbaa !181
  call void @llvm.lifetime.start.p0(i64 16, ptr nonnull %3) #33
  store ptr @.str.5, ptr %3, align 8
  %.sroa.212.0..sroa_idx = getelementptr inbounds nuw i8, ptr %3, i64 8
  store i8 2, ptr %.sroa.212.0..sroa_idx, align 8
  call void @llvm.lifetime.start.p0(i64 16, ptr nonnull %4) #33
  store ptr @.str.6, ptr %4, align 8
  %.sroa.28.0..sroa_idx = getelementptr inbounds nuw i8, ptr %4, i64 8
  store i8 2, ptr %.sroa.28.0..sroa_idx, align 8
  %8 = call noundef nonnull align 8 dereferenceable(8) ptr @_ZN8pybind117module_3defIPFNS_5arrayES2_S2_EJNS_3argES5_EEERS0_PKcOT_DpRKT0_(ptr noundef nonnull align 8 dereferenceable(8) %0, ptr noundef nonnull @.str.4, ptr noundef nonnull align 8 dereferenceable(8) %2, ptr noundef nonnull align 8 dereferenceable(9) %3, ptr noundef nonnull align 8 dereferenceable(9) %4)
  call void @llvm.lifetime.end.p0(i64 16, ptr nonnull %4) #33
  call void @llvm.lifetime.end.p0(i64 16, ptr nonnull %3) #33
  call void @llvm.lifetime.end.p0(i64 8, ptr nonnull %2) #33
  call void @llvm.lifetime.start.p0(i64 8, ptr nonnull %5) #33
  store ptr @_ZN6open3d2ml7contrib8Iou3dCPUEN8pybind115arrayES3_, ptr %5, align 8, !tbaa !181
  call void @llvm.lifetime.start.p0(i64 16, ptr nonnull %6) #33
  store ptr @.str.5, ptr %6, align 8
  %.sroa.24.0..sroa_idx = getelementptr inbounds nuw i8, ptr %6, i64 8
  store i8 2, ptr %.sroa.24.0..sroa_idx, align 8
  call void @llvm.lifetime.start.p0(i64 16, ptr nonnull %7) #33
  store ptr @.str.6, ptr %7, align 8
  %.sroa.2.0..sroa_idx = getelementptr inbounds nuw i8, ptr %7, i64 8
  store i8 2, ptr %.sroa.2.0..sroa_idx, align 8
  %9 = call noundef nonnull align 8 dereferenceable(8) ptr @_ZN8pybind117module_3defIPFNS_5arrayES2_S2_EJNS_3argES5_EEERS0_PKcOT_DpRKT0_(ptr noundef nonnull align 8 dereferenceable(8) %0, ptr noundef nonnull @.str.7, ptr noundef nonnull align 8 dereferenceable(8) %5, ptr noundef nonnull align 8 dereferenceable(9) %6, ptr noundef nonnull align 8 dereferenceable(9) %7)
  call void @llvm.lifetime.end.p0(i64 16, ptr nonnull %7) #33
  call void @llvm.lifetime.end.p0(i64 16, ptr nonnull %6) #33
  call void @llvm.lifetime.end.p0(i64 8, ptr nonnull %5) #33
  ret void
}